; Function Attrs: mustprogress nounwind uwtable
define hidden void @_ZN14MethodLiveness10BasicBlock9store_twoEi(ptr noundef nonnull align 8 dereferenceable(169) %0, i32 noundef %1) local_unnamed_addr #0 align 2 {
  %3 = getelementptr inbounds i8, ptr %0, i64 88
  %4 = sext i32 %1 to i64
  %5 = load ptr, ptr %3, align 8
  %6 = lshr i64 %4, 6
  %7 = getelementptr inbounds i64, ptr %5, i64 %6
  %8 = load i64, ptr %7, align 8
  %9 = and i64 %4, 63
  %10 = shl nuw i64 1, %9
  %11 = and i64 %8, %10
  %.not.i = icmp eq i64 %11, 0
  br i1 %.not.i, label %12, label %_ZN14MethodLiveness10BasicBlock9store_oneEi.exit

12:                                               ; preds = %2
  %13 = getelementptr inbounds i8, ptr %0, i64 112
  tail call void @_ZN6BitMap6at_putEmb(ptr noundef nonnull align 8 dereferenceable(16) %13, i64 noundef %4, i1 noundef zeroext true) #12
  %.pre = load ptr, ptr %3, align 8
  br label %_ZN14MethodLiveness10BasicBlock9store_oneEi.exit

_ZN14MethodLiveness10BasicBlock9store_oneEi.exit: ; preds = %2, %12
  %14 = phi ptr [ %5, %2 ], [ %.pre, %12 ]
  %15 = add nsw i32 %1, 1
  %16 = sext i32 %15 to i64
  %17 = lshr i64 %16, 6
  %18 = getelementptr inbounds i64, ptr %14, i64 %17
  %19 = load i64, ptr %18, align 8
  %20 = and i64 %16, 63
  %21 = shl nuw i64 1, %20
  %22 = and i64 %19, %21
  %.not.i2 = icmp eq i64 %22, 0
  br i1 %.not.i2, label %23, label %_ZN14MethodLiveness10BasicBlock9store_oneEi.exit3

23:                                               ; preds = %_ZN14MethodLiveness10BasicBlock9store_oneEi.exit
  %24 = getelementptr inbounds i8, ptr %0, i64 112
  tail call void @_ZN6BitMap6at_putEmb(ptr noundef nonnull align 8 dereferenceable(16) %24, i64 noundef %16, i1 noundef zeroext true) #12
  br label %_ZN14MethodLiveness10BasicBlock9store_oneEi.exit3

_ZN14MethodLiveness10BasicBlock9store_oneEi.exit3: ; preds = %_ZN14MethodLiveness10BasicBlock9store_oneEi.exit, %23
  ret void
}